Certificate:
    Data:
        Version: 3 (0x2)
        Serial Number: 539103744 (0x20221200)
        Signature Algorithm: ecdsa-with-SHA384
        Issuer: C=FR, ST=Basque, L=Biarritz, O=Capsule Corp, OU=Offchain Dev Team, CN=SGX/emailAddress=sgx@capsule-corp.io
        Validity
            Not Before: Nov 30 17:58:45 2022 GMT
            Not After : Nov 30 17:58:45 2023 GMT
        Subject: C=FR, ST=Basque, L=Biarritz, O=Capsule Corp, OU=Ternoa, CN=SGX/emailAddress=admin@capsule-corp.io
        Subject Public Key Info:
            Public Key Algorithm: id-ecPublicKey
                Public-Key: (384 bit)
                pub:
                    04:77:3f:f6:78:1a:cd:00:45:85:83:b7:db:7c:91:
                    2e:06:86:06:13:a4:c3:b7:9a:5b:76:77:7d:c9:3d:
                    9a:b5:9f:cd:10:36:53:7d:ec:79:62:b0:8f:7f:21:
                    59:24:ab:3f:b6:89:db:ca:9a:0c:59:bc:3b:a9:8f:
                    a8:c4:dc:17:d9:10:0b:15:4a:93:09:73:78:05:39:
                    82:2d:06:b2:a0:62:28:f5:5a:e1:d7:18:e4:4a:64:
                    15:5d:19:21:f9:49:22
                ASN1 OID: secp384r1
                NIST CURVE: P-384
        X509v3 extensions:
            X509v3 Basic Constraints: 
                CA:FALSE
            Netscape Cert Type: 
                SSL Server
            Netscape Comment: 
                Ternoa Server Certificate
            X509v3 Subject Key Identifier: 
                51:43:DC:C2:2B:6C:79:F9:8F:1F:B8:5D:AF:71:F2:A3:A5:EB:18:5F
            X509v3 Authority Key Identifier: 
                keyid:64:59:4F:1B:DC:CA:BC:5B:B6:2D:1C:32:C2:42:D3:DB:D6:BD:48:48
                DirName:/C=FR/ST=Basque/L=Biarritz/O=Capsule Corp/OU=Offchain Dev Team/CN=SGX/emailAddress=sgx@capsule-corp.io
                serial:3C:6E:96:84:BE:35:67:53:70:96:08:92:B5:B9:CF:25:37:02:9F:51

            X509v3 Key Usage: critical
                Digital Signature, Key Encipherment
            X509v3 Extended Key Usage: 
                TLS Web Server Authentication
            X509v3 Subject Alternative Name: 
                IP Address:15.235.119.14, DNS:ns3223985.ip-162-19-170.eu, IP Address:162.19.170.55, DNS:ns5019429.ip-15-235-119.net, IP Address:162.19.84.49, DNS:ns3222168.ip-162-19-84.eu, IP Address:162.19.84.48, DNS:ns3222171.ip-162-19-84.eu, IP Address:146.59.110.120, DNS:ns3225029.ip-146-59-110.eu, IP Address:162.19.170.54, DNS:ns3223987.ip-162-19-170.eu, IP Address:127.0.0.1, DNS:localhost
    Signature Algorithm: ecdsa-with-SHA384
         30:45:02:21:00:81:93:86:b6:41:8f:b6:ee:ed:c4:13:c7:35:
         24:96:d4:91:8b:12:ee:2f:26:cf:1a:04:5d:6d:df:a6:8d:7c:
         3f:02:20:0f:2a:79:45:c9:d0:bd:2f:7b:f4:9d:0a:87:5f:94:
         e1:0c:c8:8c:66:b4:f8:7a:13:d8:73:f0:51:7d:31:fc:06
-----BEGIN CERTIFICATE-----
MIIEiTCCBC+gAwIBAgIEICISADAKBggqhkjOPQQDAzCBljELMAkGA1UEBhMCRlIx
DzANBgNVBAgMBkJhc3F1ZTERMA8GA1UEBwwIQmlhcnJpdHoxFTATBgNVBAoMDENh
cHN1bGUgQ29ycDEaMBgGA1UECwwRT2ZmY2hhaW4gRGV2IFRlYW0xDDAKBgNVBAMM
A1NHWDEiMCAGCSqGSIb3DQEJARYTc2d4QGNhcHN1bGUtY29ycC5pbzAeFw0yMjEx
MzAxNzU4NDVaFw0yMzExMzAxNzU4NDVaMIGNMQswCQYDVQQGEwJGUjEPMA0GA1UE
CAwGQmFzcXVlMREwDwYDVQQHDAhCaWFycml0ejEVMBMGA1UECgwMQ2Fwc3VsZSBD
b3JwMQ8wDQYDVQQLDAZUZXJub2ExDDAKBgNVBAMMA1NHWDEkMCIGCSqGSIb3DQEJ
ARYVYWRtaW5AY2Fwc3VsZS1jb3JwLmlvMHYwEAYHKoZIzj0CAQYFK4EEACIDYgAE
dz/2eBrNAEWFg7fbfJEuBoYGE6TDt5pbdnd9yT2atZ/NEDZTfex5YrCPfyFZJKs/
tonbypoMWbw7qY+oxNwX2RALFUqTCXN4BTmCLQayoGIo9Vrh1xjkSmQVXRkh+Uki
o4ICUzCCAk8wCQYDVR0TBAIwADARBglghkgBhvhCAQEEBAMCBkAwKAYJYIZIAYb4
QgENBBsWGVRlcm5vYSBTZXJ2ZXIgQ2VydGlmaWNhdGUwHQYDVR0OBBYEFFFD3MIr
bHn5jx+4Xa9x8qOl6xhfMIHWBgNVHSMEgc4wgcuAFGRZTxvcyrxbti0cMsJC09vW
vUhIoYGcpIGZMIGWMQswCQYDVQQGEwJGUjEPMA0GA1UECAwGQmFzcXVlMREwDwYD
VQQHDAhCaWFycml0ejEVMBMGA1UECgwMQ2Fwc3VsZSBDb3JwMRowGAYDVQQLDBFP
ZmZjaGFpbiBEZXYgVGVhbTEMMAoGA1UEAwwDU0dYMSIwIAYJKoZIhvcNAQkBFhNz
Z3hAY2Fwc3VsZS1jb3JwLmlvghQ8bpaEvjVnU3CWCJK1uc8lNwKfUTAOBgNVHQ8B
Af8EBAMCBaAwEwYDVR0lBAwwCgYIKwYBBQUHAwEwgecGA1UdEQSB3zCB3IcED+t3
DoIabnMzMjIzOTg1LmlwLTE2Mi0xOS0xNzAuZXWHBKITqjeCG25zNTAxOTQyOS5p
cC0xNS0yMzUtMTE5Lm5ldIcEohNUMYIZbnMzMjIyMTY4LmlwLTE2Mi0xOS04NC5l
dYcEohNUMIIZbnMzMjIyMTcxLmlwLTE2Mi0xOS04NC5ldYcEkjtueIIabnMzMjI1
MDI5LmlwLTE0Ni01OS0xMTAuZXWHBKITqjaCGm5zMzIyMzk4Ny5pcC0xNjItMTkt
MTcwLmV1hwR/AAABgglsb2NhbGhvc3QwCgYIKoZIzj0EAwMDSAAwRQIhAIGThrZB
j7bu7cQTxzUkltSRixLuLybPGgRdbd+mjXw/AiAPKnlFydC9L3v0nQqHX5ThDMiM
ZrT4ehPYc/BRfTH8Bg==
-----END CERTIFICATE-----
